target datalayout = "e-m:e-p270:32:32-p271:32:32-p272:64:64-i64:64-i128:128-f80:128-n8:16:32:64-S128"
target triple = "x86_64-pc-linux-gnu"

%struct.utsname = type { [65 x i8], [65 x i8], [65 x i8], [65 x i8], [65 x i8], [65 x i8] }

@.str.18 = private unnamed_addr constant [6 x i8] c"uname\00", align 1
@.str.225 = private unnamed_addr constant [8 x i8] c"sysname\00", align 1
@.str.226 = private unnamed_addr constant [9 x i8] c"nodename\00", align 1
@.str.227 = private unnamed_addr constant [8 x i8] c"release\00", align 1
@.str.228 = private unnamed_addr constant [8 x i8] c"version\00", align 1
@.str.229 = private unnamed_addr constant [8 x i8] c"machine\00", align 1

; Function Attrs: inlinehint nounwind sspstrong willreturn memory(read) uwtable
define internal i64 @rb_intern_const(ptr noundef nonnull %0) #10 {
  %2 = alloca ptr, align 8
  %3 = alloca i64, align 8
  store ptr %0, ptr %2, align 8, !tbaa !10
  call void @llvm.lifetime.start.p0(i64 8, ptr %3) #19
  %4 = load ptr, ptr %2, align 8, !tbaa !10
  %5 = call i64 @strlen(ptr noundef %4) #21
  store i64 %5, ptr %3, align 8, !tbaa !6
  %6 = load ptr, ptr %2, align 8, !tbaa !10
  %7 = load i64, ptr %3, align 8, !tbaa !6
  %8 = call i64 @rb_intern2(ptr noundef %6, i64 noundef %7)
  call void @llvm.lifetime.end.p0(i64 8, ptr %3) #19
  ret i64 %8
}

; Function Attrs: nounwind sspstrong uwtable
define internal i64 @etc_uname(i64 noundef %0) #0 {
  %2 = alloca i64, align 8
  %3 = alloca %struct.utsname, align 1
  %4 = alloca i32, align 4
  %5 = alloca i64, align 8
  store i64 %0, ptr %2, align 8, !tbaa !6
  call void @llvm.lifetime.start.p0(i64 390, ptr %3) #19
  call void @llvm.lifetime.start.p0(i64 4, ptr %4) #19
  call void @llvm.lifetime.start.p0(i64 8, ptr %5) #19
  %6 = call i32 @uname(ptr noundef %3) #19
  store i32 %6, ptr %4, align 4, !tbaa !15
  %7 = load i32, ptr %4, align 4, !tbaa !15
  %8 = icmp eq i32 %7, -1
  br i1 %8, label %9, label %10

9:                                                ; preds = %1
  call void @rb_sys_fail(ptr noundef @.str.18) #22
  unreachable

10:                                               ; preds = %1
  %11 = call i64 @rb_hash_new()
  store i64 %11, ptr %5, align 8, !tbaa !6
  %12 = load i64, ptr %5, align 8, !tbaa !6
  %13 = call i64 @rb_intern_const(ptr noundef @.str.225) #21
  %14 = call i64 @rb_id2sym(i64 noundef %13)
  %15 = getelementptr inbounds nuw %struct.utsname, ptr %3, i32 0, i32 0
  %16 = getelementptr inbounds [65 x i8], ptr %15, i64 0, i64 0
  %17 = call i64 @rb_str_new_cstr(ptr noundef %16)
  %18 = call i64 @rb_hash_aset(i64 noundef %12, i64 noundef %14, i64 noundef %17)
  %19 = load i64, ptr %5, align 8, !tbaa !6
  %20 = call i64 @rb_intern_const(ptr noundef @.str.226) #21
  %21 = call i64 @rb_id2sym(i64 noundef %20)
  %22 = getelementptr inbounds nuw %struct.utsname, ptr %3, i32 0, i32 1
  %23 = getelementptr inbounds [65 x i8], ptr %22, i64 0, i64 0
  %24 = call i64 @rb_str_new_cstr(ptr noundef %23)
  %25 = call i64 @rb_hash_aset(i64 noundef %19, i64 noundef %21, i64 noundef %24)
  %26 = load i64, ptr %5, align 8, !tbaa !6
  %27 = call i64 @rb_intern_const(ptr noundef @.str.227) #21
  %28 = call i64 @rb_id2sym(i64 noundef %27)
  %29 = getelementptr inbounds nuw %struct.utsname, ptr %3, i32 0, i32 2
  %30 = getelementptr inbounds [65 x i8], ptr %29, i64 0, i64 0
  %31 = call i64 @rb_str_new_cstr(ptr noundef %30)
  %32 = call i64 @rb_hash_aset(i64 noundef %26, i64 noundef %28, i64 noundef %31)
  %33 = load i64, ptr %5, align 8, !tbaa !6
  %34 = call i64 @rb_intern_const(ptr noundef @.str.228) #21
  %35 = call i64 @rb_id2sym(i64 noundef %34)
  %36 = getelementptr inbounds nuw %struct.utsname, ptr %3, i32 0, i32 3
  %37 = getelementptr inbounds [65 x i8], ptr %36, i64 0, i64 0
  %38 = call i64 @rb_str_new_cstr(ptr noundef %37)
  %39 = call i64 @rb_hash_aset(i64 noundef %33, i64 noundef %35, i64 noundef %38)
  %40 = load i64, ptr %5, align 8, !tbaa !6
  %41 = call i64 @rb_intern_const(ptr noundef @.str.229) #21
  %42 = call i64 @rb_id2sym(i64 noundef %41)
  %43 = getelementptr inbounds nuw %struct.utsname, ptr %3, i32 0, i32 4
  %44 = getelementptr inbounds [65 x i8], ptr %43, i64 0, i64 0
  %45 = call i64 @rb_str_new_cstr(ptr noundef %44)
  %46 = call i64 @rb_hash_aset(i64 noundef %40, i64 noundef %42, i64 noundef %45)
  %47 = load i64, ptr %5, align 8, !tbaa !6
  call void @llvm.lifetime.end.p0(i64 8, ptr %5) #19
  call void @llvm.lifetime.end.p0(i64 4, ptr %4) #19
  call void @llvm.lifetime.end.p0(i64 390, ptr %3) #19
  ret i64 %47
}