; Function Attrs: nounwind sspstrong uwtable
define internal i64 @etc_uname(i64 %0) #0 {
  %2 = alloca %struct.utsname, align 1
  call void @llvm.lifetime.start.p0(i64 390, ptr nonnull %2) #13
  %3 = call i32 @uname(ptr noundef nonnull %2) #13
  %4 = icmp eq i32 %3, -1
  br i1 %4, label %5, label %6

5:                                                ; preds = %1
  tail call void @rb_sys_fail(ptr noundef nonnull @.str.18) #15
  unreachable

6:                                                ; preds = %1
  %7 = tail call i64 @rb_hash_new() #13
  %8 = tail call i64 @rb_intern2(ptr noundef nonnull @.str.225, i64 noundef 7) #13
  %9 = tail call i64 @rb_id2sym(i64 noundef %8) #13
  %10 = call i64 @rb_str_new_cstr(ptr noundef nonnull %2) #13
  %11 = call i64 @rb_hash_aset(i64 noundef %7, i64 noundef %9, i64 noundef %10) #13
  %12 = call i64 @rb_intern2(ptr noundef nonnull @.str.226, i64 noundef 8) #13
  %13 = call i64 @rb_id2sym(i64 noundef %12) #13
  %14 = getelementptr inbounds nuw i8, ptr %2, i64 65
  %15 = call i64 @rb_str_new_cstr(ptr noundef nonnull %14) #13
  %16 = call i64 @rb_hash_aset(i64 noundef %7, i64 noundef %13, i64 noundef %15) #13
  %17 = call i64 @rb_intern2(ptr noundef nonnull @.str.227, i64 noundef 7) #13
  %18 = call i64 @rb_id2sym(i64 noundef %17) #13
  %19 = getelementptr inbounds nuw i8, ptr %2, i64 130
  %20 = call i64 @rb_str_new_cstr(ptr noundef nonnull %19) #13
  %21 = call i64 @rb_hash_aset(i64 noundef %7, i64 noundef %18, i64 noundef %20) #13
  %22 = call i64 @rb_intern2(ptr noundef nonnull @.str.228, i64 noundef 7) #13
  %23 = call i64 @rb_id2sym(i64 noundef %22) #13
  %24 = getelementptr inbounds nuw i8, ptr %2, i64 195
  %25 = call i64 @rb_str_new_cstr(ptr noundef nonnull %24) #13
  %26 = call i64 @rb_hash_aset(i64 noundef %7, i64 noundef %23, i64 noundef %25) #13
  %27 = call i64 @rb_intern2(ptr noundef nonnull @.str.229, i64 noundef 7) #13
  %28 = call i64 @rb_id2sym(i64 noundef %27) #13
  %29 = getelementptr inbounds nuw i8, ptr %2, i64 260
  %30 = call i64 @rb_str_new_cstr(ptr noundef nonnull %29) #13
  %31 = call i64 @rb_hash_aset(i64 noundef %7, i64 noundef %28, i64 noundef %30) #13
  call void @llvm.lifetime.end.p0(i64 390, ptr nonnull %2) #13
  ret i64 %7
}